target datalayout = "e-m:e-p270:32:32-p271:32:32-p272:64:64-i64:64-i128:128-f80:128-n8:16:32:64-S128"
target triple = "x86_64-pc-linux-gnu"

@.str.3 = private unnamed_addr constant [2 x i8] c"\0A\00", align 1
@.str.4 = private unnamed_addr constant [33 x i8] c"    share [options] [selection]\0A\00", align 1
@.str.5 = private unnamed_addr constant [75 x i8] c"This pass merges shareable resources into a single resource. A SAT solver\0A\00", align 1
@.str.6 = private unnamed_addr constant [55 x i8] c"is used to determine if two resources are share-able.\0A\00", align 1
@.str.7 = private unnamed_addr constant [10 x i8] c"  -force\0A\00", align 1
@.str.8 = private unnamed_addr constant [74 x i8] c"    Per default the selection of cells that is considered for sharing is\0A\00", align 1
@.str.9 = private unnamed_addr constant [72 x i8] c"    narrowed using a list of cell types. With this option all selected\0A\00", align 1
@.str.10 = private unnamed_addr constant [48 x i8] c"    cells are considered for resource sharing.\0A\00", align 1
@.str.11 = private unnamed_addr constant [76 x i8] c"    IMPORTANT NOTE: If the -all option is used then no cells with internal\0A\00", align 1
@.str.12 = private unnamed_addr constant [29 x i8] c"    state must be selected!\0A\00", align 1
@.str.13 = private unnamed_addr constant [15 x i8] c"  -aggressive\0A\00", align 1
@.str.14 = private unnamed_addr constant [72 x i8] c"    Per default some heuristics are used to reduce the number of cells\0A\00", align 1
@.str.15 = private unnamed_addr constant [75 x i8] c"    considered for resource sharing to only large resources. This options\0A\00", align 1
@.str.16 = private unnamed_addr constant [78 x i8] c"    turns this heuristics off, resulting in much more cells being considered\0A\00", align 1
@.str.17 = private unnamed_addr constant [27 x i8] c"    for resource sharing.\0A\00", align 1
@.str.18 = private unnamed_addr constant [9 x i8] c"  -fast\0A\00", align 1
@.str.19 = private unnamed_addr constant [82 x i8] c"    Only consider the simple part of the control logic in SAT solving, resulting\0A\00", align 1
@.str.20 = private unnamed_addr constant [81 x i8] c"    in much easier SAT problems at the cost of maybe missing some opportunities\0A\00", align 1
@.str.21 = private unnamed_addr constant [12 x i8] c"  -limit N\0A\00", align 1
@.str.22 = private unnamed_addr constant [79 x i8] c"    Only perform the first N merges, then stop. This is useful for debugging.\0A\00", align 1

; Function Attrs: mustprogress uwtable
define internal void @_ZN12_GLOBAL__N_19SharePass4helpEv(ptr noundef nonnull align 8 dereferenceable(104) %0) unnamed_addr #4 align 2 {
  %2 = alloca ptr, align 8
  store ptr %0, ptr %2, align 8
  call void (ptr, ...) @_ZN5Yosys3logEPKcz(ptr noundef @.str.3)
  call void (ptr, ...) @_ZN5Yosys3logEPKcz(ptr noundef @.str.4)
  call void (ptr, ...) @_ZN5Yosys3logEPKcz(ptr noundef @.str.3)
  call void (ptr, ...) @_ZN5Yosys3logEPKcz(ptr noundef @.str.5)
  call void (ptr, ...) @_ZN5Yosys3logEPKcz(ptr noundef @.str.6)
  call void (ptr, ...) @_ZN5Yosys3logEPKcz(ptr noundef @.str.3)
  call void (ptr, ...) @_ZN5Yosys3logEPKcz(ptr noundef @.str.7)
  call void (ptr, ...) @_ZN5Yosys3logEPKcz(ptr noundef @.str.8)
  call void (ptr, ...) @_ZN5Yosys3logEPKcz(ptr noundef @.str.9)
  call void (ptr, ...) @_ZN5Yosys3logEPKcz(ptr noundef @.str.10)
  call void (ptr, ...) @_ZN5Yosys3logEPKcz(ptr noundef @.str.3)
  call void (ptr, ...) @_ZN5Yosys3logEPKcz(ptr noundef @.str.11)
  call void (ptr, ...) @_ZN5Yosys3logEPKcz(ptr noundef @.str.12)
  call void (ptr, ...) @_ZN5Yosys3logEPKcz(ptr noundef @.str.3)
  call void (ptr, ...) @_ZN5Yosys3logEPKcz(ptr noundef @.str.13)
  call void (ptr, ...) @_ZN5Yosys3logEPKcz(ptr noundef @.str.14)
  call void (ptr, ...) @_ZN5Yosys3logEPKcz(ptr noundef @.str.15)
  call void (ptr, ...) @_ZN5Yosys3logEPKcz(ptr noundef @.str.16)
  call void (ptr, ...) @_ZN5Yosys3logEPKcz(ptr noundef @.str.17)
  call void (ptr, ...) @_ZN5Yosys3logEPKcz(ptr noundef @.str.3)
  call void (ptr, ...) @_ZN5Yosys3logEPKcz(ptr noundef @.str.18)
  call void (ptr, ...) @_ZN5Yosys3logEPKcz(ptr noundef @.str.19)
  call void (ptr, ...) @_ZN5Yosys3logEPKcz(ptr noundef @.str.20)
  call void (ptr, ...) @_ZN5Yosys3logEPKcz(ptr noundef @.str.17)
  call void (ptr, ...) @_ZN5Yosys3logEPKcz(ptr noundef @.str.3)
  call void (ptr, ...) @_ZN5Yosys3logEPKcz(ptr noundef @.str.21)
  call void (ptr, ...) @_ZN5Yosys3logEPKcz(ptr noundef @.str.22)
  call void (ptr, ...) @_ZN5Yosys3logEPKcz(ptr noundef @.str.3)
  ret void
}